target datalayout = "e-m:e-p270:32:32-p271:32:32-p272:64:64-i64:64-i128:128-f80:128-n8:16:32:64-S128"
target triple = "x86_64-pc-linux-gnu"

%struct._PQconninfoOption = type { ptr, ptr, ptr, ptr, ptr, ptr, i32 }

@.str = private unnamed_addr constant [14 x i8] c"out of memory\00", align 1
@.str.103 = private unnamed_addr constant [8 x i8] c"service\00", align 1
@.str.255 = private unnamed_addr constant [2 x i8] c"r\00", align 1
@.str.256 = private unnamed_addr constant [28 x i8] c"service file \22%s\22 not found\00", align 1
@.str.257 = private unnamed_addr constant [38 x i8] c"line %d too long in service file \22%s\22\00", align 1
@.str.258 = private unnamed_addr constant [43 x i8] c"syntax error in service file \22%s\22, line %d\00", align 1
@.str.259 = private unnamed_addr constant [74 x i8] c"nested service specifications not supported in service file \22%s\22, line %d\00", align 1

; Function Attrs: nounwind uwtable
define internal i32 @parseServiceFile(ptr noundef %0, ptr noundef %1, ptr noundef %2, ptr noundef %3, ptr noundef %4) #0 {
  %6 = alloca i32, align 4
  %7 = alloca ptr, align 8
  %8 = alloca ptr, align 8
  %9 = alloca ptr, align 8
  %10 = alloca ptr, align 8
  %11 = alloca ptr, align 8
  %12 = alloca i32, align 4
  %13 = alloca i32, align 4
  %14 = alloca i32, align 4
  %15 = alloca ptr, align 8
  %16 = alloca ptr, align 8
  %17 = alloca [1024 x i8], align 16
  %18 = alloca i32, align 4
  %19 = alloca i32, align 4
  %20 = alloca ptr, align 8
  %21 = alloca ptr, align 8
  %22 = alloca i8, align 1
  store ptr %0, ptr %7, align 8
  store ptr %1, ptr %8, align 8
  store ptr %2, ptr %9, align 8
  store ptr %3, ptr %10, align 8
  store ptr %4, ptr %11, align 8
  call void @llvm.lifetime.start.p0(i64 4, ptr %12) #12
  store i32 0, ptr %12, align 4
  call void @llvm.lifetime.start.p0(i64 4, ptr %13) #12
  store i32 0, ptr %13, align 4
  call void @llvm.lifetime.start.p0(i64 4, ptr %14) #12
  call void @llvm.lifetime.start.p0(i64 8, ptr %15) #12
  call void @llvm.lifetime.start.p0(i64 8, ptr %16) #12
  call void @llvm.lifetime.start.p0(i64 1024, ptr %17) #12
  %23 = load ptr, ptr %11, align 8
  store i8 0, ptr %23, align 1
  %24 = load ptr, ptr %7, align 8
  %25 = call noalias ptr @fopen(ptr noundef %24, ptr noundef @.str.255)
  store ptr %25, ptr %15, align 8
  %26 = load ptr, ptr %15, align 8
  %27 = icmp eq ptr %26, null
  br i1 %27, label %28, label %31

28:                                               ; preds = %5
  %29 = load ptr, ptr %10, align 8
  %30 = load ptr, ptr %7, align 8
  call void (ptr, ptr, ...) @libpq_append_error(ptr noundef %29, ptr noundef @.str.256, ptr noundef %30)
  store i32 1, ptr %6, align 4
  store i32 1, ptr %18, align 4
  br label %243

31:                                               ; preds = %5
  br label %32

32:                                               ; preds = %237, %235, %31
  %33 = getelementptr inbounds [1024 x i8], ptr %17, i64 0, i64 0
  %34 = load ptr, ptr %15, align 8
  %35 = call ptr @fgets(ptr noundef %33, i32 noundef 1024, ptr noundef %34)
  store ptr %35, ptr %16, align 8
  %36 = icmp ne ptr %35, null
  br i1 %36, label %37, label %238

37:                                               ; preds = %32
  call void @llvm.lifetime.start.p0(i64 4, ptr %19) #12
  %38 = load i32, ptr %13, align 4
  %39 = add i32 %38, 1
  store i32 %39, ptr %13, align 4
  %40 = load ptr, ptr %16, align 8
  %41 = call i64 @strlen(ptr noundef %40) #13
  %42 = icmp uge i64 %41, 1023
  br i1 %42, label %43, label %47

43:                                               ; preds = %37
  %44 = load ptr, ptr %10, align 8
  %45 = load i32, ptr %13, align 4
  %46 = load ptr, ptr %7, align 8
  call void (ptr, ptr, ...) @libpq_append_error(ptr noundef %44, ptr noundef @.str.257, i32 noundef %45, ptr noundef %46)
  store i32 2, ptr %12, align 4
  store i32 4, ptr %18, align 4
  br label %235

47:                                               ; preds = %37
  %48 = load ptr, ptr %16, align 8
  %49 = call i64 @strlen(ptr noundef %48) #13
  %50 = trunc i64 %49 to i32
  store i32 %50, ptr %19, align 4
  br label %51

51:                                               ; preds = %72, %47
  %52 = load i32, ptr %19, align 4
  %53 = icmp sgt i32 %52, 0
  br i1 %53, label %54, label %70

54:                                               ; preds = %51
  %55 = call ptr @__ctype_b_loc() #16
  %56 = load ptr, ptr %55, align 8
  %57 = load ptr, ptr %16, align 8
  %58 = load i32, ptr %19, align 4
  %59 = sub i32 %58, 1
  %60 = sext i32 %59 to i64
  %61 = getelementptr inbounds i8, ptr %57, i64 %60
  %62 = load i8, ptr %61, align 1
  %63 = zext i8 %62 to i32
  %64 = sext i32 %63 to i64
  %65 = getelementptr inbounds i16, ptr %56, i64 %64
  %66 = load i16, ptr %65, align 2
  %67 = zext i16 %66 to i32
  %68 = and i32 %67, 8192
  %69 = icmp ne i32 %68, 0
  br label %70

70:                                               ; preds = %54, %51
  %71 = phi i1 [ false, %51 ], [ %69, %54 ]
  br i1 %71, label %72, label %78

72:                                               ; preds = %70
  %73 = load ptr, ptr %16, align 8
  %74 = load i32, ptr %19, align 4
  %75 = add i32 %74, -1
  store i32 %75, ptr %19, align 4
  %76 = sext i32 %75 to i64
  %77 = getelementptr inbounds i8, ptr %73, i64 %76
  store i8 0, ptr %77, align 1
  br label %51, !llvm.loop !64

78:                                               ; preds = %70
  br label %79

79:                                               ; preds = %99, %78
  %80 = load ptr, ptr %16, align 8
  %81 = load i8, ptr %80, align 1
  %82 = sext i8 %81 to i32
  %83 = icmp ne i32 %82, 0
  br i1 %83, label %84, label %97

84:                                               ; preds = %79
  %85 = call ptr @__ctype_b_loc() #16
  %86 = load ptr, ptr %85, align 8
  %87 = load ptr, ptr %16, align 8
  %88 = getelementptr inbounds i8, ptr %87, i64 0
  %89 = load i8, ptr %88, align 1
  %90 = zext i8 %89 to i32
  %91 = sext i32 %90 to i64
  %92 = getelementptr inbounds i16, ptr %86, i64 %91
  %93 = load i16, ptr %92, align 2
  %94 = zext i16 %93 to i32
  %95 = and i32 %94, 8192
  %96 = icmp ne i32 %95, 0
  br label %97

97:                                               ; preds = %84, %79
  %98 = phi i1 [ false, %79 ], [ %96, %84 ]
  br i1 %98, label %99, label %102

99:                                               ; preds = %97
  %100 = load ptr, ptr %16, align 8
  %101 = getelementptr inbounds nuw i8, ptr %100, i32 1
  store ptr %101, ptr %16, align 8
  br label %79, !llvm.loop !65

102:                                              ; preds = %97
  %103 = load ptr, ptr %16, align 8
  %104 = getelementptr inbounds i8, ptr %103, i64 0
  %105 = load i8, ptr %104, align 1
  %106 = sext i8 %105 to i32
  %107 = icmp eq i32 %106, 0
  br i1 %107, label %114, label %108

108:                                              ; preds = %102
  %109 = load ptr, ptr %16, align 8
  %110 = getelementptr inbounds i8, ptr %109, i64 0
  %111 = load i8, ptr %110, align 1
  %112 = sext i8 %111 to i32
  %113 = icmp eq i32 %112, 35
  br i1 %113, label %114, label %115

114:                                              ; preds = %108, %102
  store i32 2, ptr %18, align 4
  br label %235, !llvm.loop !66

115:                                              ; preds = %108
  %116 = load ptr, ptr %16, align 8
  %117 = getelementptr inbounds i8, ptr %116, i64 0
  %118 = load i8, ptr %117, align 1
  %119 = sext i8 %118 to i32
  %120 = icmp eq i32 %119, 91
  br i1 %120, label %121, label %148

121:                                              ; preds = %115
  %122 = load ptr, ptr %11, align 8
  %123 = load i8, ptr %122, align 1, !range !3, !noundef !4
  %124 = trunc i8 %123 to i1
  br i1 %124, label %125, label %126

125:                                              ; preds = %121
  store i32 4, ptr %18, align 4
  br label %235

126:                                              ; preds = %121
  %127 = load ptr, ptr %16, align 8
  %128 = getelementptr inbounds i8, ptr %127, i64 1
  %129 = load ptr, ptr %8, align 8
  %130 = load ptr, ptr %8, align 8
  %131 = call i64 @strlen(ptr noundef %130) #13
  %132 = call i32 @strncmp(ptr noundef %128, ptr noundef %129, i64 noundef %131) #13
  %133 = icmp eq i32 %132, 0
  br i1 %133, label %134, label %145

134:                                              ; preds = %126
  %135 = load ptr, ptr %16, align 8
  %136 = load ptr, ptr %8, align 8
  %137 = call i64 @strlen(ptr noundef %136) #13
  %138 = add i64 %137, 1
  %139 = getelementptr inbounds nuw i8, ptr %135, i64 %138
  %140 = load i8, ptr %139, align 1
  %141 = sext i8 %140 to i32
  %142 = icmp eq i32 %141, 93
  br i1 %142, label %143, label %145

143:                                              ; preds = %134
  %144 = load ptr, ptr %11, align 8
  store i8 1, ptr %144, align 1
  br label %147

145:                                              ; preds = %134, %126
  %146 = load ptr, ptr %11, align 8
  store i8 0, ptr %146, align 1
  br label %147

147:                                              ; preds = %145, %143
  br label %234

148:                                              ; preds = %115
  %149 = load ptr, ptr %11, align 8
  %150 = load i8, ptr %149, align 1, !range !3, !noundef !4
  %151 = trunc i8 %150 to i1
  br i1 %151, label %152, label %233

152:                                              ; preds = %148
  call void @llvm.lifetime.start.p0(i64 8, ptr %20) #12
  call void @llvm.lifetime.start.p0(i64 8, ptr %21) #12
  call void @llvm.lifetime.start.p0(i64 1, ptr %22) #12
  %153 = load ptr, ptr %16, align 8
  store ptr %153, ptr %20, align 8
  %154 = load ptr, ptr %16, align 8
  %155 = call ptr @strchr(ptr noundef %154, i32 noundef 61) #13
  store ptr %155, ptr %21, align 8
  %156 = load ptr, ptr %21, align 8
  %157 = icmp eq ptr %156, null
  br i1 %157, label %158, label %162

158:                                              ; preds = %152
  %159 = load ptr, ptr %10, align 8
  %160 = load ptr, ptr %7, align 8
  %161 = load i32, ptr %13, align 4
  call void (ptr, ptr, ...) @libpq_append_error(ptr noundef %159, ptr noundef @.str.258, ptr noundef %160, i32 noundef %161)
  store i32 3, ptr %12, align 4
  store i32 4, ptr %18, align 4
  br label %230

162:                                              ; preds = %152
  %163 = load ptr, ptr %21, align 8
  %164 = getelementptr inbounds nuw i8, ptr %163, i32 1
  store ptr %164, ptr %21, align 8
  store i8 0, ptr %163, align 1
  %165 = load ptr, ptr %20, align 8
  %166 = call i32 @strcmp(ptr noundef %165, ptr noundef @.str.103) #13
  %167 = icmp eq i32 %166, 0
  br i1 %167, label %168, label %172

168:                                              ; preds = %162
  %169 = load ptr, ptr %10, align 8
  %170 = load ptr, ptr %7, align 8
  %171 = load i32, ptr %13, align 4
  call void (ptr, ptr, ...) @libpq_append_error(ptr noundef %169, ptr noundef @.str.259, ptr noundef %170, i32 noundef %171)
  store i32 3, ptr %12, align 4
  store i32 4, ptr %18, align 4
  br label %230

172:                                              ; preds = %162
  store i8 0, ptr %22, align 1
  store i32 0, ptr %14, align 4
  br label %173

173:                                              ; preds = %219, %172
  %174 = load ptr, ptr %9, align 8
  %175 = load i32, ptr %14, align 4
  %176 = sext i32 %175 to i64
  %177 = getelementptr inbounds %struct._PQconninfoOption, ptr %174, i64 %176
  %178 = getelementptr inbounds nuw %struct._PQconninfoOption, ptr %177, i32 0, i32 0
  %179 = load ptr, ptr %178, align 8
  %180 = icmp ne ptr %179, null
  br i1 %180, label %181, label %222

181:                                              ; preds = %173
  %182 = load ptr, ptr %9, align 8
  %183 = load i32, ptr %14, align 4
  %184 = sext i32 %183 to i64
  %185 = getelementptr inbounds %struct._PQconninfoOption, ptr %182, i64 %184
  %186 = getelementptr inbounds nuw %struct._PQconninfoOption, ptr %185, i32 0, i32 0
  %187 = load ptr, ptr %186, align 8
  %188 = load ptr, ptr %20, align 8
  %189 = call i32 @strcmp(ptr noundef %187, ptr noundef %188) #13
  %190 = icmp eq i32 %189, 0
  br i1 %190, label %191, label %218

191:                                              ; preds = %181
  %192 = load ptr, ptr %9, align 8
  %193 = load i32, ptr %14, align 4
  %194 = sext i32 %193 to i64
  %195 = getelementptr inbounds %struct._PQconninfoOption, ptr %192, i64 %194
  %196 = getelementptr inbounds nuw %struct._PQconninfoOption, ptr %195, i32 0, i32 3
  %197 = load ptr, ptr %196, align 8
  %198 = icmp eq ptr %197, null
  br i1 %198, label %199, label %207

199:                                              ; preds = %191
  %200 = load ptr, ptr %21, align 8
  %201 = call noalias ptr @strdup(ptr noundef %200) #12
  %202 = load ptr, ptr %9, align 8
  %203 = load i32, ptr %14, align 4
  %204 = sext i32 %203 to i64
  %205 = getelementptr inbounds %struct._PQconninfoOption, ptr %202, i64 %204
  %206 = getelementptr inbounds nuw %struct._PQconninfoOption, ptr %205, i32 0, i32 3
  store ptr %201, ptr %206, align 8
  br label %207

207:                                              ; preds = %199, %191
  %208 = load ptr, ptr %9, align 8
  %209 = load i32, ptr %14, align 4
  %210 = sext i32 %209 to i64
  %211 = getelementptr inbounds %struct._PQconninfoOption, ptr %208, i64 %210
  %212 = getelementptr inbounds nuw %struct._PQconninfoOption, ptr %211, i32 0, i32 3
  %213 = load ptr, ptr %212, align 8
  %214 = icmp ne ptr %213, null
  br i1 %214, label %217, label %215

215:                                              ; preds = %207
  %216 = load ptr, ptr %10, align 8
  call void (ptr, ptr, ...) @libpq_append_error(ptr noundef %216, ptr noundef @.str)
  store i32 3, ptr %12, align 4
  store i32 4, ptr %18, align 4
  br label %230

217:                                              ; preds = %207
  store i8 1, ptr %22, align 1
  br label %222

218:                                              ; preds = %181
  br label %219

219:                                              ; preds = %218
  %220 = load i32, ptr %14, align 4
  %221 = add i32 %220, 1
  store i32 %221, ptr %14, align 4
  br label %173, !llvm.loop !67

222:                                              ; preds = %217, %173
  %223 = load i8, ptr %22, align 1, !range !3, !noundef !4
  %224 = trunc i8 %223 to i1
  br i1 %224, label %229, label %225

225:                                              ; preds = %222
  %226 = load ptr, ptr %10, align 8
  %227 = load ptr, ptr %7, align 8
  %228 = load i32, ptr %13, align 4
  call void (ptr, ptr, ...) @libpq_append_error(ptr noundef %226, ptr noundef @.str.258, ptr noundef %227, i32 noundef %228)
  store i32 3, ptr %12, align 4
  store i32 4, ptr %18, align 4
  br label %230

229:                                              ; preds = %222
  store i32 0, ptr %18, align 4
  br label %230

230:                                              ; preds = %225, %215, %168, %158, %229
  call void @llvm.lifetime.end.p0(i64 1, ptr %22) #12
  call void @llvm.lifetime.end.p0(i64 8, ptr %21) #12
  call void @llvm.lifetime.end.p0(i64 8, ptr %20) #12
  %231 = load i32, ptr %18, align 4
  switch i32 %231, label %235 [
    i32 0, label %232
  ]

232:                                              ; preds = %230
  br label %233

233:                                              ; preds = %232, %148
  br label %234

234:                                              ; preds = %233, %147
  store i32 0, ptr %18, align 4
  br label %235

235:                                              ; preds = %125, %43, %234, %230, %114
  call void @llvm.lifetime.end.p0(i64 4, ptr %19) #12
  %236 = load i32, ptr %18, align 4
  switch i32 %236, label %243 [
    i32 0, label %237
    i32 2, label %32
    i32 4, label %239
  ]

237:                                              ; preds = %235
  br label %32, !llvm.loop !66

238:                                              ; preds = %32
  br label %239

239:                                              ; preds = %238, %235
  %240 = load ptr, ptr %15, align 8
  %241 = call i32 @fclose(ptr noundef %240)
  %242 = load i32, ptr %12, align 4
  store i32 %242, ptr %6, align 4
  store i32 1, ptr %18, align 4
  br label %243

243:                                              ; preds = %239, %235, %28
  call void @llvm.lifetime.end.p0(i64 1024, ptr %17) #12
  call void @llvm.lifetime.end.p0(i64 8, ptr %16) #12
  call void @llvm.lifetime.end.p0(i64 8, ptr %15) #12
  call void @llvm.lifetime.end.p0(i64 4, ptr %14) #12
  call void @llvm.lifetime.end.p0(i64 4, ptr %13) #12
  call void @llvm.lifetime.end.p0(i64 4, ptr %12) #12
  %244 = load i32, ptr %6, align 4
  ret i32 %244
}