; Function Attrs: nounwind uwtable
define internal fastcc range(i32 0, 4) i32 @parseServiceFile(ptr noundef nonnull %0, ptr noundef nonnull readonly captures(none) %1, ptr noundef nonnull captures(none) %2, ptr noundef %3, ptr noundef nonnull captures(none) initializes((0, 1)) %4) unnamed_addr #0 {
  %6 = alloca [1024 x i8], align 16
  call void @llvm.lifetime.start.p0(i64 1024, ptr nonnull %6) #25
  store i8 0, ptr %4, align 1
  %7 = tail call noalias ptr @fopen(ptr noundef nonnull %0, ptr noundef nonnull @.str.255)
  %8 = icmp eq ptr %7, null
  br i1 %8, label %10, label %.preheader97

.preheader97:                                     ; preds = %5
  %9 = call ptr @fgets(ptr noundef nonnull %6, i32 noundef 1024, ptr noundef nonnull %7)
  %.not114 = icmp eq ptr %9, null
  br i1 %.not114, label %.thread94, label %.lr.ph116

10:                                               ; preds = %5
  tail call void (ptr, ptr, ...) @libpq_append_error(ptr noundef %3, ptr noundef nonnull @.str.256, ptr noundef nonnull %0) #25
  br label %87

.lr.ph116:                                        ; preds = %.preheader97, %.critedge2.thread
  %11 = phi ptr [ %85, %.critedge2.thread ], [ %9, %.preheader97 ]
  %.074115 = phi i32 [ %12, %.critedge2.thread ], [ 0, %.preheader97 ]
  %12 = add i32 %.074115, 1
  %13 = call i64 @strlen(ptr noundef nonnull dereferenceable(1) %11) #26
  %14 = icmp ugt i64 %13, 1022
  br i1 %14, label %15, label %16

15:                                               ; preds = %.lr.ph116
  call void (ptr, ptr, ...) @libpq_append_error(ptr noundef %3, ptr noundef nonnull @.str.257, i32 noundef %12, ptr noundef nonnull %0) #25
  br label %.thread94

16:                                               ; preds = %.lr.ph116
  %invariant.gep = getelementptr i8, ptr %11, i64 -1
  %.not118 = icmp eq i64 %13, 0
  br i1 %.not118, label %.critedge, label %.lr.ph

.lr.ph:                                           ; preds = %16
  %17 = trunc nuw nsw i64 %13 to i32
  %18 = tail call ptr @__ctype_b_loc() #28
  br label %19

19:                                               ; preds = %.lr.ph, %27
  %.068105 = phi i32 [ %17, %.lr.ph ], [ %28, %27 ]
  %20 = load ptr, ptr %18, align 8
  %21 = zext nneg i32 %.068105 to i64
  %gep = getelementptr i8, ptr %invariant.gep, i64 %21
  %22 = load i8, ptr %gep, align 1
  %23 = zext i8 %22 to i64
  %24 = getelementptr inbounds nuw i16, ptr %20, i64 %23
  %25 = load i16, ptr %24, align 2
  %26 = and i16 %25, 8192
  %.not80 = icmp eq i16 %26, 0
  br i1 %.not80, label %.critedge, label %27

27:                                               ; preds = %19
  %28 = add nsw i32 %.068105, -1
  %29 = zext nneg i32 %28 to i64
  %30 = getelementptr inbounds nuw i8, ptr %11, i64 %29
  store i8 0, ptr %30, align 1
  %31 = icmp sgt i32 %.068105, 1
  br i1 %31, label %19, label %.critedge, !llvm.loop !56

.critedge:                                        ; preds = %19, %27, %16
  %32 = load i8, ptr %11, align 1
  %.not81107 = icmp eq i8 %32, 0
  br i1 %.not81107, label %.critedge2.thread, label %.lr.ph109

.lr.ph109:                                        ; preds = %.critedge
  %33 = tail call ptr @__ctype_b_loc() #28
  %34 = load ptr, ptr %33, align 8
  br label %35

35:                                               ; preds = %.lr.ph109, %41
  %36 = phi i8 [ %32, %.lr.ph109 ], [ %43, %41 ]
  %.070108 = phi ptr [ %11, %.lr.ph109 ], [ %42, %41 ]
  %37 = zext i8 %36 to i64
  %38 = getelementptr inbounds nuw i16, ptr %34, i64 %37
  %39 = load i16, ptr %38, align 2
  %40 = and i16 %39, 8192
  %.not82 = icmp eq i16 %40, 0
  br i1 %.not82, label %.critedge2, label %41

41:                                               ; preds = %35
  %42 = getelementptr inbounds nuw i8, ptr %.070108, i64 1
  %43 = load i8, ptr %42, align 1
  %.not81 = icmp eq i8 %43, 0
  br i1 %.not81, label %.critedge2.thread, label %35, !llvm.loop !57

.critedge2:                                       ; preds = %35
  switch i8 %36, label %58 [
    i8 91, label %44
    i8 35, label %.critedge2.thread
  ]

44:                                               ; preds = %.critedge2
  %45 = load i8, ptr %4, align 1, !range !13, !noundef !14
  %46 = trunc nuw i8 %45 to i1
  br i1 %46, label %.thread94, label %47

47:                                               ; preds = %44
  %48 = getelementptr inbounds nuw i8, ptr %.070108, i64 1
  %49 = call i64 @strlen(ptr noundef nonnull dereferenceable(1) %1) #26
  %50 = call i32 @strncmp(ptr noundef nonnull %48, ptr noundef nonnull %1, i64 noundef %49) #26
  %51 = icmp eq i32 %50, 0
  br i1 %51, label %52, label %57

52:                                               ; preds = %47
  %53 = getelementptr i8, ptr %.070108, i64 %49
  %54 = getelementptr i8, ptr %53, i64 1
  %55 = load i8, ptr %54, align 1
  %56 = icmp eq i8 %55, 93
  br i1 %56, label %.critedge2.thread.sink.split, label %57

57:                                               ; preds = %52, %47
  br label %.critedge2.thread.sink.split

58:                                               ; preds = %.critedge2
  %59 = load i8, ptr %4, align 1, !range !13, !noundef !14
  %60 = trunc nuw i8 %59 to i1
  br i1 %60, label %61, label %.critedge2.thread

61:                                               ; preds = %58
  %62 = call ptr @strchr(ptr noundef nonnull dereferenceable(1) %.070108, i32 noundef 61) #26
  %63 = icmp eq ptr %62, null
  br i1 %63, label %64, label %65

64:                                               ; preds = %61
  call void (ptr, ptr, ...) @libpq_append_error(ptr noundef %3, ptr noundef nonnull @.str.258, ptr noundef nonnull %0, i32 noundef %12) #25
  br label %.thread94

65:                                               ; preds = %61
  %66 = getelementptr inbounds nuw i8, ptr %62, i64 1
  store i8 0, ptr %62, align 1
  %67 = call i32 @strcmp(ptr noundef nonnull dereferenceable(1) %.070108, ptr noundef nonnull dereferenceable(8) @.str.103) #26
  %68 = icmp eq i32 %67, 0
  br i1 %68, label %72, label %.preheader

.preheader:                                       ; preds = %65
  %69 = load ptr, ptr %2, align 8
  %.not83.not110 = icmp eq ptr %69, null
  br i1 %.not83.not110, label %.critedge86, label %.lr.ph112.preheader

.lr.ph112.preheader:                              ; preds = %.preheader
  %70 = call i32 @strcmp(ptr noundef nonnull dereferenceable(1) %69, ptr noundef nonnull dereferenceable(1) %.070108) #26
  %71 = icmp eq i32 %70, 0
  br i1 %71, label %.lr.ph112._crit_edge, label %.lr.ph156

72:                                               ; preds = %65
  call void (ptr, ptr, ...) @libpq_append_error(ptr noundef %3, ptr noundef nonnull @.str.259, ptr noundef nonnull %0, i32 noundef %12) #25
  br label %.thread94

.lr.ph156:                                        ; preds = %.lr.ph112.preheader, %.lr.ph112
  %.073111155 = phi i32 [ %73, %.lr.ph112 ], [ 0, %.lr.ph112.preheader ]
  %73 = add i32 %.073111155, 1
  %74 = sext i32 %73 to i64
  %75 = getelementptr inbounds %struct._PQconninfoOption, ptr %2, i64 %74
  %76 = load ptr, ptr %75, align 8
  %.not83.not = icmp eq ptr %76, null
  br i1 %.not83.not, label %.critedge86, label %.lr.ph112, !llvm.loop !58

.lr.ph112:                                        ; preds = %.lr.ph156
  %77 = call i32 @strcmp(ptr noundef nonnull dereferenceable(1) %76, ptr noundef nonnull dereferenceable(1) %.070108) #26
  %78 = icmp eq i32 %77, 0
  br i1 %78, label %.lr.ph112._crit_edge, label %.lr.ph156, !llvm.loop !58

.lr.ph112._crit_edge:                             ; preds = %.lr.ph112, %.lr.ph112.preheader
  %.lcssa146 = phi ptr [ %2, %.lr.ph112.preheader ], [ %75, %.lr.ph112 ]
  %79 = getelementptr inbounds nuw i8, ptr %.lcssa146, i64 24
  %80 = load ptr, ptr %79, align 8
  %81 = icmp eq ptr %80, null
  br i1 %81, label %82, label %.critedge2.thread

82:                                               ; preds = %.lr.ph112._crit_edge
  %83 = call noalias ptr @strdup(ptr noundef nonnull %66) #25
  store ptr %83, ptr %79, align 8
  %.not84 = icmp eq ptr %83, null
  br i1 %.not84, label %84, label %.critedge2.thread

84:                                               ; preds = %82
  call void (ptr, ptr, ...) @libpq_append_error(ptr noundef %3, ptr noundef nonnull @.str) #25
  br label %.thread94

.critedge86:                                      ; preds = %.preheader, %.lr.ph156
  call void (ptr, ptr, ...) @libpq_append_error(ptr noundef %3, ptr noundef nonnull @.str.258, ptr noundef nonnull %0, i32 noundef %12) #25
  br label %.thread94

.critedge2.thread.sink.split:                     ; preds = %52, %57
  %.sink = phi i8 [ 0, %57 ], [ 1, %52 ]
  store i8 %.sink, ptr %4, align 1
  br label %.critedge2.thread

.critedge2.thread:                                ; preds = %41, %.critedge2.thread.sink.split, %.critedge, %.lr.ph112._crit_edge, %82, %58, %.critedge2
  %85 = call ptr @fgets(ptr noundef nonnull %6, i32 noundef 1024, ptr noundef nonnull %7)
  %.not = icmp eq ptr %85, null
  br i1 %.not, label %.thread94, label %.lr.ph116

.thread94:                                        ; preds = %.critedge2.thread, %44, %.preheader97, %84, %.critedge86, %72, %64, %15
  %.4 = phi i32 [ 2, %15 ], [ 3, %64 ], [ 3, %72 ], [ 3, %.critedge86 ], [ 3, %84 ], [ 0, %.preheader97 ], [ 0, %44 ], [ 0, %.critedge2.thread ]
  %86 = call i32 @fclose(ptr noundef nonnull %7)
  br label %87

87:                                               ; preds = %.thread94, %10
  %.067 = phi i32 [ 1, %10 ], [ %.4, %.thread94 ]
  call void @llvm.lifetime.end.p0(i64 1024, ptr nonnull %6) #25
  ret i32 %.067
}